MPLINK 5.08, LINKER
Linker Map File - Created Fri Nov 27 09:35:51 2020

                                 Section Info
                  Section       Type    Address   Location Size(Bytes)
                ---------  ---------  ---------  ---------  ---------
                 RES_VECT       code   0x000000    program   0x000002
                   .cinit    romdata   0x000001    program   0x000004
                 INT_VECT       code   0x000004    program   0x000150
                MAIN_PROG       code   0x0000ac    program   0x0001ba
.config_2007_BUILD/DEFAULT/PRODUCTION/MAIN.O       code   0x002007    program   0x000002
.config_2008_BUILD/DEFAULT/PRODUCTION/MAIN.O       code   0x002008    program   0x000002
                     VARS      udata   0x000020       data   0x00002e



                              Program Memory Usage 
                               Start         End      
                           ---------   ---------      
                            0x000000    0x000002      
                            0x000004    0x000188      
                            0x002007    0x002008      
            394 out of 8455 program addresses used, program memory utilization is 4%



                              Symbols - Sorted by Name
                     Name    Address   Location    Storage File                     
                ---------  ---------  ---------  --------- ---------                
                  ADC_INT   0x000061    program     static C:\Users\Daniel\Documents\GitHub\Proyecto3_ControlComputarizado\Proyecto_3.X\main.asm
                AJUSTE_DC   0x00017e    program     static C:\Users\Daniel\Documents\GitHub\Proyecto3_ControlComputarizado\Proyecto_3.X\main.asm
                 CENTENAS   0x000160    program     static C:\Users\Daniel\Documents\GitHub\Proyecto3_ControlComputarizado\Proyecto_3.X\main.asm
           CENTENA_SERVO0   0x000092    program     static C:\Users\Daniel\Documents\GitHub\Proyecto3_ControlComputarizado\Proyecto_3.X\main.asm
           CENTENA_SERVO1   0x000098    program     static C:\Users\Daniel\Documents\GitHub\Proyecto3_ControlComputarizado\Proyecto_3.X\main.asm
           CENTENA_SERVO2   0x00009e    program     static C:\Users\Daniel\Documents\GitHub\Proyecto3_ControlComputarizado\Proyecto_3.X\main.asm
                     COMA   0x0000a4    program     static C:\Users\Daniel\Documents\GitHub\Proyecto3_ControlComputarizado\Proyecto_3.X\main.asm
              COMPUTADORA   0x000106    program     static C:\Users\Daniel\Documents\GitHub\Proyecto3_ControlComputarizado\Proyecto_3.X\main.asm
                 CONV_BCD   0x00015d    program     static C:\Users\Daniel\Documents\GitHub\Proyecto3_ControlComputarizado\Proyecto_3.X\main.asm
                 CONV_BIN   0x000142    program     static C:\Users\Daniel\Documents\GitHub\Proyecto3_ControlComputarizado\Proyecto_3.X\main.asm
            CONV_CENTENAS   0x00014b    program     static C:\Users\Daniel\Documents\GitHub\Proyecto3_ControlComputarizado\Proyecto_3.X\main.asm
             CONV_DECENAS   0x000151    program     static C:\Users\Daniel\Documents\GitHub\Proyecto3_ControlComputarizado\Proyecto_3.X\main.asm
            CONV_UNIDADES   0x000157    program     static C:\Users\Daniel\Documents\GitHub\Proyecto3_ControlComputarizado\Proyecto_3.X\main.asm
                  DECENAS   0x000167    program     static C:\Users\Daniel\Documents\GitHub\Proyecto3_ControlComputarizado\Proyecto_3.X\main.asm
            DECENA_SERVO0   0x000094    program     static C:\Users\Daniel\Documents\GitHub\Proyecto3_ControlComputarizado\Proyecto_3.X\main.asm
            DECENA_SERVO1   0x00009a    program     static C:\Users\Daniel\Documents\GitHub\Proyecto3_ControlComputarizado\Proyecto_3.X\main.asm
            DECENA_SERVO2   0x0000a0    program     static C:\Users\Daniel\Documents\GitHub\Proyecto3_ControlComputarizado\Proyecto_3.X\main.asm
                    DELAY   0x000184    program     static C:\Users\Daniel\Documents\GitHub\Proyecto3_ControlComputarizado\Proyecto_3.X\main.asm
                   ENVIAR   0x000081    program     static C:\Users\Daniel\Documents\GitHub\Proyecto3_ControlComputarizado\Proyecto_3.X\main.asm
                ENVIAR_PC   0x0000a9    program     static C:\Users\Daniel\Documents\GitHub\Proyecto3_ControlComputarizado\Proyecto_3.X\main.asm
              ENVIAR_SUMA   0x0000a8    program     static C:\Users\Daniel\Documents\GitHub\Proyecto3_ControlComputarizado\Proyecto_3.X\main.asm
            ESTADO_ACTUAL   0x000103    program     static C:\Users\Daniel\Documents\GitHub\Proyecto3_ControlComputarizado\Proyecto_3.X\main.asm
                      FIN   0x000042    program     static C:\Users\Daniel\Documents\GitHub\Proyecto3_ControlComputarizado\Proyecto_3.X\main.asm
                    FINAL   0x0000a6    program     static C:\Users\Daniel\Documents\GitHub\Proyecto3_ControlComputarizado\Proyecto_3.X\main.asm
            GUARDAR_VALOR   0x000175    program     static C:\Users\Daniel\Documents\GitHub\Proyecto3_ControlComputarizado\Proyecto_3.X\main.asm
             INICIAR_CONV   0x000078    program     static C:\Users\Daniel\Documents\GitHub\Proyecto3_ControlComputarizado\Proyecto_3.X\main.asm
                 LEC_ADC0   0x00006a    program     static C:\Users\Daniel\Documents\GitHub\Proyecto3_ControlComputarizado\Proyecto_3.X\main.asm
                 LEC_ADC1   0x00006f    program     static C:\Users\Daniel\Documents\GitHub\Proyecto3_ControlComputarizado\Proyecto_3.X\main.asm
                 LEC_ADC2   0x000074    program     static C:\Users\Daniel\Documents\GitHub\Proyecto3_ControlComputarizado\Proyecto_3.X\main.asm
                     LOAD   0x00007a    program     static C:\Users\Daniel\Documents\GitHub\Proyecto3_ControlComputarizado\Proyecto_3.X\main.asm
                     LOOP   0x0000fc    program     static C:\Users\Daniel\Documents\GitHub\Proyecto3_ControlComputarizado\Proyecto_3.X\main.asm
                   MANUAL   0x000119    program     static C:\Users\Daniel\Documents\GitHub\Proyecto3_ControlComputarizado\Proyecto_3.X\main.asm
            MUESTRA_ENVIO   0x000122    program     static C:\Users\Daniel\Documents\GitHub\Proyecto3_ControlComputarizado\Proyecto_3.X\main.asm
                NO_VALIDO   0x00005f    program     static C:\Users\Daniel\Documents\GitHub\Proyecto3_ControlComputarizado\Proyecto_3.X\main.asm
                   RX_INT   0x00001a    program     static C:\Users\Daniel\Documents\GitHub\Proyecto3_ControlComputarizado\Proyecto_3.X\main.asm
                     SAVE   0x000004    program     static C:\Users\Daniel\Documents\GitHub\Proyecto3_ControlComputarizado\Proyecto_3.X\main.asm
                 SERVO1_S   0x000051    program     static C:\Users\Daniel\Documents\GitHub\Proyecto3_ControlComputarizado\Proyecto_3.X\main.asm
                 SERVO2_S   0x000058    program     static C:\Users\Daniel\Documents\GitHub\Proyecto3_ControlComputarizado\Proyecto_3.X\main.asm
             SERVO_SELECT   0x00004a    program     static C:\Users\Daniel\Documents\GitHub\Proyecto3_ControlComputarizado\Proyecto_3.X\main.asm
                    START   0x0000ac    program     static C:\Users\Daniel\Documents\GitHub\Proyecto3_ControlComputarizado\Proyecto_3.X\main.asm
                 STORE_S0   0x000028    program     static C:\Users\Daniel\Documents\GitHub\Proyecto3_ControlComputarizado\Proyecto_3.X\main.asm
                 STORE_S1   0x000031    program     static C:\Users\Daniel\Documents\GitHub\Proyecto3_ControlComputarizado\Proyecto_3.X\main.asm
                 STORE_S2   0x00003a    program     static C:\Users\Daniel\Documents\GitHub\Proyecto3_ControlComputarizado\Proyecto_3.X\main.asm
           SUMAR_CENTENAS   0x00014f    program     static C:\Users\Daniel\Documents\GitHub\Proyecto3_ControlComputarizado\Proyecto_3.X\main.asm
            SUMAR_DECENAS   0x000155    program     static C:\Users\Daniel\Documents\GitHub\Proyecto3_ControlComputarizado\Proyecto_3.X\main.asm
           SUMAR_UNIDADES   0x00015b    program     static C:\Users\Daniel\Documents\GitHub\Proyecto3_ControlComputarizado\Proyecto_3.X\main.asm
            TIEMPO_ACTIVO   0x000011    program     static C:\Users\Daniel\Documents\GitHub\Proyecto3_ControlComputarizado\Proyecto_3.X\main.asm
          TIEMPO_INACTIVO   0x000017    program     static C:\Users\Daniel\Documents\GitHub\Proyecto3_ControlComputarizado\Proyecto_3.X\main.asm
                 TMR0_INT   0x000009    program     static C:\Users\Daniel\Documents\GitHub\Proyecto3_ControlComputarizado\Proyecto_3.X\main.asm
                 UNIDADES   0x00016e    program     static C:\Users\Daniel\Documents\GitHub\Proyecto3_ControlComputarizado\Proyecto_3.X\main.asm
            UNIDAD_SERVO0   0x000096    program     static C:\Users\Daniel\Documents\GitHub\Proyecto3_ControlComputarizado\Proyecto_3.X\main.asm
            UNIDAD_SERVO1   0x00009c    program     static C:\Users\Daniel\Documents\GitHub\Proyecto3_ControlComputarizado\Proyecto_3.X\main.asm
            UNIDAD_SERVO2   0x0000a2    program     static C:\Users\Daniel\Documents\GitHub\Proyecto3_ControlComputarizado\Proyecto_3.X\main.asm
          _MAIN_PROG_0056   0x000102    program     static C:\Users\Daniel\Documents\GitHub\Proyecto3_ControlComputarizado\Proyecto_3.X\main.asm
          _MAIN_PROG_00DB   0x000187    program     static C:\Users\Daniel\Documents\GitHub\Proyecto3_ControlComputarizado\Proyecto_3.X\main.asm
                 ADC_CONT   0x000026       data     static C:\Users\Daniel\Documents\GitHub\Proyecto3_ControlComputarizado\Proyecto_3.X\main.asm
                  ANTIREB   0x000022       data     static C:\Users\Daniel\Documents\GitHub\Proyecto3_ControlComputarizado\Proyecto_3.X\main.asm
              CENTENAS_TX   0x00002e       data     static C:\Users\Daniel\Documents\GitHub\Proyecto3_ControlComputarizado\Proyecto_3.X\main.asm
                    CICLO   0x00004a       data     static C:\Users\Daniel\Documents\GitHub\Proyecto3_ControlComputarizado\Proyecto_3.X\main.asm
            CIFRA_CENTENA   0x000038       data     static C:\Users\Daniel\Documents\GitHub\Proyecto3_ControlComputarizado\Proyecto_3.X\main.asm
             CIFRA_DECENA   0x000039       data     static C:\Users\Daniel\Documents\GitHub\Proyecto3_ControlComputarizado\Proyecto_3.X\main.asm
             CIFRA_UNIDAD   0x00003a       data     static C:\Users\Daniel\Documents\GitHub\Proyecto3_ControlComputarizado\Proyecto_3.X\main.asm
                    CONT1   0x000021       data     static C:\Users\Daniel\Documents\GitHub\Proyecto3_ControlComputarizado\Proyecto_3.X\main.asm
               CONT_ENVIO   0x00002a       data     static C:\Users\Daniel\Documents\GitHub\Proyecto3_ControlComputarizado\Proyecto_3.X\main.asm
                CONT_RECP   0x00003b       data     static C:\Users\Daniel\Documents\GitHub\Proyecto3_ControlComputarizado\Proyecto_3.X\main.asm
               DECENAS_TX   0x00002d       data     static C:\Users\Daniel\Documents\GitHub\Proyecto3_ControlComputarizado\Proyecto_3.X\main.asm
               DUTY_CYCLE   0x000049       data     static C:\Users\Daniel\Documents\GitHub\Proyecto3_ControlComputarizado\Proyecto_3.X\main.asm
                     MODO   0x000020       data     static C:\Users\Daniel\Documents\GitHub\Proyecto3_ControlComputarizado\Proyecto_3.X\main.asm
                   PULSO0   0x000027       data     static C:\Users\Daniel\Documents\GitHub\Proyecto3_ControlComputarizado\Proyecto_3.X\main.asm
                   PULSO1   0x000028       data     static C:\Users\Daniel\Documents\GitHub\Proyecto3_ControlComputarizado\Proyecto_3.X\main.asm
                   PULSO2   0x000029       data     static C:\Users\Daniel\Documents\GitHub\Proyecto3_ControlComputarizado\Proyecto_3.X\main.asm
                     ROTF   0x000048       data     static C:\Users\Daniel\Documents\GitHub\Proyecto3_ControlComputarizado\Proyecto_3.X\main.asm
           RX_CENTENAS_S0   0x00003f       data     static C:\Users\Daniel\Documents\GitHub\Proyecto3_ControlComputarizado\Proyecto_3.X\main.asm
           RX_CENTENAS_S1   0x000042       data     static C:\Users\Daniel\Documents\GitHub\Proyecto3_ControlComputarizado\Proyecto_3.X\main.asm
           RX_CENTENAS_S2   0x000045       data     static C:\Users\Daniel\Documents\GitHub\Proyecto3_ControlComputarizado\Proyecto_3.X\main.asm
            RX_DECENAS_S0   0x000040       data     static C:\Users\Daniel\Documents\GitHub\Proyecto3_ControlComputarizado\Proyecto_3.X\main.asm
            RX_DECENAS_S1   0x000043       data     static C:\Users\Daniel\Documents\GitHub\Proyecto3_ControlComputarizado\Proyecto_3.X\main.asm
            RX_DECENAS_S2   0x000046       data     static C:\Users\Daniel\Documents\GitHub\Proyecto3_ControlComputarizado\Proyecto_3.X\main.asm
           RX_UNIDADES_S0   0x000041       data     static C:\Users\Daniel\Documents\GitHub\Proyecto3_ControlComputarizado\Proyecto_3.X\main.asm
           RX_UNIDADES_S1   0x000044       data     static C:\Users\Daniel\Documents\GitHub\Proyecto3_ControlComputarizado\Proyecto_3.X\main.asm
           RX_UNIDADES_S2   0x000047       data     static C:\Users\Daniel\Documents\GitHub\Proyecto3_ControlComputarizado\Proyecto_3.X\main.asm
                   SERVO0   0x000023       data     static C:\Users\Daniel\Documents\GitHub\Proyecto3_ControlComputarizado\Proyecto_3.X\main.asm
                   SERVO1   0x000024       data     static C:\Users\Daniel\Documents\GitHub\Proyecto3_ControlComputarizado\Proyecto_3.X\main.asm
                   SERVO2   0x000025       data     static C:\Users\Daniel\Documents\GitHub\Proyecto3_ControlComputarizado\Proyecto_3.X\main.asm
                SERVO_BIN   0x00003e       data     static C:\Users\Daniel\Documents\GitHub\Proyecto3_ControlComputarizado\Proyecto_3.X\main.asm
                  SERVO_V   0x00003d       data     static C:\Users\Daniel\Documents\GitHub\Proyecto3_ControlComputarizado\Proyecto_3.X\main.asm
                 TEMP_FSR   0x00004d       data     static C:\Users\Daniel\Documents\GitHub\Proyecto3_ControlComputarizado\Proyecto_3.X\main.asm
              TEMP_STATUS   0x00004c       data     static C:\Users\Daniel\Documents\GitHub\Proyecto3_ControlComputarizado\Proyecto_3.X\main.asm
                   TEMP_W   0x00004b       data     static C:\Users\Daniel\Documents\GitHub\Proyecto3_ControlComputarizado\Proyecto_3.X\main.asm
           TX_CENTENAS_S0   0x000031       data     static C:\Users\Daniel\Documents\GitHub\Proyecto3_ControlComputarizado\Proyecto_3.X\main.asm
           TX_CENTENAS_S1   0x000034       data     static C:\Users\Daniel\Documents\GitHub\Proyecto3_ControlComputarizado\Proyecto_3.X\main.asm
           TX_CENTENAS_S2   0x000037       data     static C:\Users\Daniel\Documents\GitHub\Proyecto3_ControlComputarizado\Proyecto_3.X\main.asm
            TX_DECENAS_S0   0x000030       data     static C:\Users\Daniel\Documents\GitHub\Proyecto3_ControlComputarizado\Proyecto_3.X\main.asm
            TX_DECENAS_S1   0x000033       data     static C:\Users\Daniel\Documents\GitHub\Proyecto3_ControlComputarizado\Proyecto_3.X\main.asm
            TX_DECENAS_S2   0x000036       data     static C:\Users\Daniel\Documents\GitHub\Proyecto3_ControlComputarizado\Proyecto_3.X\main.asm
           TX_UNIDADES_S0   0x00002f       data     static C:\Users\Daniel\Documents\GitHub\Proyecto3_ControlComputarizado\Proyecto_3.X\main.asm
           TX_UNIDADES_S1   0x000032       data     static C:\Users\Daniel\Documents\GitHub\Proyecto3_ControlComputarizado\Proyecto_3.X\main.asm
           TX_UNIDADES_S2   0x000035       data     static C:\Users\Daniel\Documents\GitHub\Proyecto3_ControlComputarizado\Proyecto_3.X\main.asm
              UNIDADES_TX   0x00002c       data     static C:\Users\Daniel\Documents\GitHub\Proyecto3_ControlComputarizado\Proyecto_3.X\main.asm
                  VALOR_B   0x00002b       data     static C:\Users\Daniel\Documents\GitHub\Proyecto3_ControlComputarizado\Proyecto_3.X\main.asm
                VALOR_BCD   0x00003c       data     static C:\Users\Daniel\Documents\GitHub\Proyecto3_ControlComputarizado\Proyecto_3.X\main.asm



                              Symbols - Sorted by Address
                     Name    Address   Location    Storage File                     
                ---------  ---------  ---------  --------- ---------                
                     SAVE   0x000004    program     static C:\Users\Daniel\Documents\GitHub\Proyecto3_ControlComputarizado\Proyecto_3.X\main.asm
                 TMR0_INT   0x000009    program     static C:\Users\Daniel\Documents\GitHub\Proyecto3_ControlComputarizado\Proyecto_3.X\main.asm
            TIEMPO_ACTIVO   0x000011    program     static C:\Users\Daniel\Documents\GitHub\Proyecto3_ControlComputarizado\Proyecto_3.X\main.asm
          TIEMPO_INACTIVO   0x000017    program     static C:\Users\Daniel\Documents\GitHub\Proyecto3_ControlComputarizado\Proyecto_3.X\main.asm
                   RX_INT   0x00001a    program     static C:\Users\Daniel\Documents\GitHub\Proyecto3_ControlComputarizado\Proyecto_3.X\main.asm
                 STORE_S0   0x000028    program     static C:\Users\Daniel\Documents\GitHub\Proyecto3_ControlComputarizado\Proyecto_3.X\main.asm
                 STORE_S1   0x000031    program     static C:\Users\Daniel\Documents\GitHub\Proyecto3_ControlComputarizado\Proyecto_3.X\main.asm
                 STORE_S2   0x00003a    program     static C:\Users\Daniel\Documents\GitHub\Proyecto3_ControlComputarizado\Proyecto_3.X\main.asm
                      FIN   0x000042    program     static C:\Users\Daniel\Documents\GitHub\Proyecto3_ControlComputarizado\Proyecto_3.X\main.asm
             SERVO_SELECT   0x00004a    program     static C:\Users\Daniel\Documents\GitHub\Proyecto3_ControlComputarizado\Proyecto_3.X\main.asm
                 SERVO1_S   0x000051    program     static C:\Users\Daniel\Documents\GitHub\Proyecto3_ControlComputarizado\Proyecto_3.X\main.asm
                 SERVO2_S   0x000058    program     static C:\Users\Daniel\Documents\GitHub\Proyecto3_ControlComputarizado\Proyecto_3.X\main.asm
                NO_VALIDO   0x00005f    program     static C:\Users\Daniel\Documents\GitHub\Proyecto3_ControlComputarizado\Proyecto_3.X\main.asm
                  ADC_INT   0x000061    program     static C:\Users\Daniel\Documents\GitHub\Proyecto3_ControlComputarizado\Proyecto_3.X\main.asm
                 LEC_ADC0   0x00006a    program     static C:\Users\Daniel\Documents\GitHub\Proyecto3_ControlComputarizado\Proyecto_3.X\main.asm
                 LEC_ADC1   0x00006f    program     static C:\Users\Daniel\Documents\GitHub\Proyecto3_ControlComputarizado\Proyecto_3.X\main.asm
                 LEC_ADC2   0x000074    program     static C:\Users\Daniel\Documents\GitHub\Proyecto3_ControlComputarizado\Proyecto_3.X\main.asm
             INICIAR_CONV   0x000078    program     static C:\Users\Daniel\Documents\GitHub\Proyecto3_ControlComputarizado\Proyecto_3.X\main.asm
                     LOAD   0x00007a    program     static C:\Users\Daniel\Documents\GitHub\Proyecto3_ControlComputarizado\Proyecto_3.X\main.asm
                   ENVIAR   0x000081    program     static C:\Users\Daniel\Documents\GitHub\Proyecto3_ControlComputarizado\Proyecto_3.X\main.asm
           CENTENA_SERVO0   0x000092    program     static C:\Users\Daniel\Documents\GitHub\Proyecto3_ControlComputarizado\Proyecto_3.X\main.asm
            DECENA_SERVO0   0x000094    program     static C:\Users\Daniel\Documents\GitHub\Proyecto3_ControlComputarizado\Proyecto_3.X\main.asm
            UNIDAD_SERVO0   0x000096    program     static C:\Users\Daniel\Documents\GitHub\Proyecto3_ControlComputarizado\Proyecto_3.X\main.asm
           CENTENA_SERVO1   0x000098    program     static C:\Users\Daniel\Documents\GitHub\Proyecto3_ControlComputarizado\Proyecto_3.X\main.asm
            DECENA_SERVO1   0x00009a    program     static C:\Users\Daniel\Documents\GitHub\Proyecto3_ControlComputarizado\Proyecto_3.X\main.asm
            UNIDAD_SERVO1   0x00009c    program     static C:\Users\Daniel\Documents\GitHub\Proyecto3_ControlComputarizado\Proyecto_3.X\main.asm
           CENTENA_SERVO2   0x00009e    program     static C:\Users\Daniel\Documents\GitHub\Proyecto3_ControlComputarizado\Proyecto_3.X\main.asm
            DECENA_SERVO2   0x0000a0    program     static C:\Users\Daniel\Documents\GitHub\Proyecto3_ControlComputarizado\Proyecto_3.X\main.asm
            UNIDAD_SERVO2   0x0000a2    program     static C:\Users\Daniel\Documents\GitHub\Proyecto3_ControlComputarizado\Proyecto_3.X\main.asm
                     COMA   0x0000a4    program     static C:\Users\Daniel\Documents\GitHub\Proyecto3_ControlComputarizado\Proyecto_3.X\main.asm
                    FINAL   0x0000a6    program     static C:\Users\Daniel\Documents\GitHub\Proyecto3_ControlComputarizado\Proyecto_3.X\main.asm
              ENVIAR_SUMA   0x0000a8    program     static C:\Users\Daniel\Documents\GitHub\Proyecto3_ControlComputarizado\Proyecto_3.X\main.asm
                ENVIAR_PC   0x0000a9    program     static C:\Users\Daniel\Documents\GitHub\Proyecto3_ControlComputarizado\Proyecto_3.X\main.asm
                    START   0x0000ac    program     static C:\Users\Daniel\Documents\GitHub\Proyecto3_ControlComputarizado\Proyecto_3.X\main.asm
                     LOOP   0x0000fc    program     static C:\Users\Daniel\Documents\GitHub\Proyecto3_ControlComputarizado\Proyecto_3.X\main.asm
          _MAIN_PROG_0056   0x000102    program     static C:\Users\Daniel\Documents\GitHub\Proyecto3_ControlComputarizado\Proyecto_3.X\main.asm
            ESTADO_ACTUAL   0x000103    program     static C:\Users\Daniel\Documents\GitHub\Proyecto3_ControlComputarizado\Proyecto_3.X\main.asm
              COMPUTADORA   0x000106    program     static C:\Users\Daniel\Documents\GitHub\Proyecto3_ControlComputarizado\Proyecto_3.X\main.asm
                   MANUAL   0x000119    program     static C:\Users\Daniel\Documents\GitHub\Proyecto3_ControlComputarizado\Proyecto_3.X\main.asm
            MUESTRA_ENVIO   0x000122    program     static C:\Users\Daniel\Documents\GitHub\Proyecto3_ControlComputarizado\Proyecto_3.X\main.asm
                 CONV_BIN   0x000142    program     static C:\Users\Daniel\Documents\GitHub\Proyecto3_ControlComputarizado\Proyecto_3.X\main.asm
            CONV_CENTENAS   0x00014b    program     static C:\Users\Daniel\Documents\GitHub\Proyecto3_ControlComputarizado\Proyecto_3.X\main.asm
           SUMAR_CENTENAS   0x00014f    program     static C:\Users\Daniel\Documents\GitHub\Proyecto3_ControlComputarizado\Proyecto_3.X\main.asm
             CONV_DECENAS   0x000151    program     static C:\Users\Daniel\Documents\GitHub\Proyecto3_ControlComputarizado\Proyecto_3.X\main.asm
            SUMAR_DECENAS   0x000155    program     static C:\Users\Daniel\Documents\GitHub\Proyecto3_ControlComputarizado\Proyecto_3.X\main.asm
            CONV_UNIDADES   0x000157    program     static C:\Users\Daniel\Documents\GitHub\Proyecto3_ControlComputarizado\Proyecto_3.X\main.asm
           SUMAR_UNIDADES   0x00015b    program     static C:\Users\Daniel\Documents\GitHub\Proyecto3_ControlComputarizado\Proyecto_3.X\main.asm
                 CONV_BCD   0x00015d    program     static C:\Users\Daniel\Documents\GitHub\Proyecto3_ControlComputarizado\Proyecto_3.X\main.asm
                 CENTENAS   0x000160    program     static C:\Users\Daniel\Documents\GitHub\Proyecto3_ControlComputarizado\Proyecto_3.X\main.asm
                  DECENAS   0x000167    program     static C:\Users\Daniel\Documents\GitHub\Proyecto3_ControlComputarizado\Proyecto_3.X\main.asm
                 UNIDADES   0x00016e    program     static C:\Users\Daniel\Documents\GitHub\Proyecto3_ControlComputarizado\Proyecto_3.X\main.asm
            GUARDAR_VALOR   0x000175    program     static C:\Users\Daniel\Documents\GitHub\Proyecto3_ControlComputarizado\Proyecto_3.X\main.asm
                AJUSTE_DC   0x00017e    program     static C:\Users\Daniel\Documents\GitHub\Proyecto3_ControlComputarizado\Proyecto_3.X\main.asm
                    DELAY   0x000184    program     static C:\Users\Daniel\Documents\GitHub\Proyecto3_ControlComputarizado\Proyecto_3.X\main.asm
          _MAIN_PROG_00DB   0x000187    program     static C:\Users\Daniel\Documents\GitHub\Proyecto3_ControlComputarizado\Proyecto_3.X\main.asm
                     MODO   0x000020       data     static C:\Users\Daniel\Documents\GitHub\Proyecto3_ControlComputarizado\Proyecto_3.X\main.asm
                    CONT1   0x000021       data     static C:\Users\Daniel\Documents\GitHub\Proyecto3_ControlComputarizado\Proyecto_3.X\main.asm
                  ANTIREB   0x000022       data     static C:\Users\Daniel\Documents\GitHub\Proyecto3_ControlComputarizado\Proyecto_3.X\main.asm
                   SERVO0   0x000023       data     static C:\Users\Daniel\Documents\GitHub\Proyecto3_ControlComputarizado\Proyecto_3.X\main.asm
                   SERVO1   0x000024       data     static C:\Users\Daniel\Documents\GitHub\Proyecto3_ControlComputarizado\Proyecto_3.X\main.asm
                   SERVO2   0x000025       data     static C:\Users\Daniel\Documents\GitHub\Proyecto3_ControlComputarizado\Proyecto_3.X\main.asm
                 ADC_CONT   0x000026       data     static C:\Users\Daniel\Documents\GitHub\Proyecto3_ControlComputarizado\Proyecto_3.X\main.asm
                   PULSO0   0x000027       data     static C:\Users\Daniel\Documents\GitHub\Proyecto3_ControlComputarizado\Proyecto_3.X\main.asm
                   PULSO1   0x000028       data     static C:\Users\Daniel\Documents\GitHub\Proyecto3_ControlComputarizado\Proyecto_3.X\main.asm
                   PULSO2   0x000029       data     static C:\Users\Daniel\Documents\GitHub\Proyecto3_ControlComputarizado\Proyecto_3.X\main.asm
               CONT_ENVIO   0x00002a       data     static C:\Users\Daniel\Documents\GitHub\Proyecto3_ControlComputarizado\Proyecto_3.X\main.asm
                  VALOR_B   0x00002b       data     static C:\Users\Daniel\Documents\GitHub\Proyecto3_ControlComputarizado\Proyecto_3.X\main.asm
              UNIDADES_TX   0x00002c       data     static C:\Users\Daniel\Documents\GitHub\Proyecto3_ControlComputarizado\Proyecto_3.X\main.asm
               DECENAS_TX   0x00002d       data     static C:\Users\Daniel\Documents\GitHub\Proyecto3_ControlComputarizado\Proyecto_3.X\main.asm
              CENTENAS_TX   0x00002e       data     static C:\Users\Daniel\Documents\GitHub\Proyecto3_ControlComputarizado\Proyecto_3.X\main.asm
           TX_UNIDADES_S0   0x00002f       data     static C:\Users\Daniel\Documents\GitHub\Proyecto3_ControlComputarizado\Proyecto_3.X\main.asm
            TX_DECENAS_S0   0x000030       data     static C:\Users\Daniel\Documents\GitHub\Proyecto3_ControlComputarizado\Proyecto_3.X\main.asm
           TX_CENTENAS_S0   0x000031       data     static C:\Users\Daniel\Documents\GitHub\Proyecto3_ControlComputarizado\Proyecto_3.X\main.asm
           TX_UNIDADES_S1   0x000032       data     static C:\Users\Daniel\Documents\GitHub\Proyecto3_ControlComputarizado\Proyecto_3.X\main.asm
            TX_DECENAS_S1   0x000033       data     static C:\Users\Daniel\Documents\GitHub\Proyecto3_ControlComputarizado\Proyecto_3.X\main.asm
           TX_CENTENAS_S1   0x000034       data     static C:\Users\Daniel\Documents\GitHub\Proyecto3_ControlComputarizado\Proyecto_3.X\main.asm
           TX_UNIDADES_S2   0x000035       data     static C:\Users\Daniel\Documents\GitHub\Proyecto3_ControlComputarizado\Proyecto_3.X\main.asm
            TX_DECENAS_S2   0x000036       data     static C:\Users\Daniel\Documents\GitHub\Proyecto3_ControlComputarizado\Proyecto_3.X\main.asm
           TX_CENTENAS_S2   0x000037       data     static C:\Users\Daniel\Documents\GitHub\Proyecto3_ControlComputarizado\Proyecto_3.X\main.asm
            CIFRA_CENTENA   0x000038       data     static C:\Users\Daniel\Documents\GitHub\Proyecto3_ControlComputarizado\Proyecto_3.X\main.asm
             CIFRA_DECENA   0x000039       data     static C:\Users\Daniel\Documents\GitHub\Proyecto3_ControlComputarizado\Proyecto_3.X\main.asm
             CIFRA_UNIDAD   0x00003a       data     static C:\Users\Daniel\Documents\GitHub\Proyecto3_ControlComputarizado\Proyecto_3.X\main.asm
                CONT_RECP   0x00003b       data     static C:\Users\Daniel\Documents\GitHub\Proyecto3_ControlComputarizado\Proyecto_3.X\main.asm
                VALOR_BCD   0x00003c       data     static C:\Users\Daniel\Documents\GitHub\Proyecto3_ControlComputarizado\Proyecto_3.X\main.asm
                  SERVO_V   0x00003d       data     static C:\Users\Daniel\Documents\GitHub\Proyecto3_ControlComputarizado\Proyecto_3.X\main.asm
                SERVO_BIN   0x00003e       data     static C:\Users\Daniel\Documents\GitHub\Proyecto3_ControlComputarizado\Proyecto_3.X\main.asm
           RX_CENTENAS_S0   0x00003f       data     static C:\Users\Daniel\Documents\GitHub\Proyecto3_ControlComputarizado\Proyecto_3.X\main.asm
            RX_DECENAS_S0   0x000040       data     static C:\Users\Daniel\Documents\GitHub\Proyecto3_ControlComputarizado\Proyecto_3.X\main.asm
           RX_UNIDADES_S0   0x000041       data     static C:\Users\Daniel\Documents\GitHub\Proyecto3_ControlComputarizado\Proyecto_3.X\main.asm
           RX_CENTENAS_S1   0x000042       data     static C:\Users\Daniel\Documents\GitHub\Proyecto3_ControlComputarizado\Proyecto_3.X\main.asm
            RX_DECENAS_S1   0x000043       data     static C:\Users\Daniel\Documents\GitHub\Proyecto3_ControlComputarizado\Proyecto_3.X\main.asm
           RX_UNIDADES_S1   0x000044       data     static C:\Users\Daniel\Documents\GitHub\Proyecto3_ControlComputarizado\Proyecto_3.X\main.asm
           RX_CENTENAS_S2   0x000045       data     static C:\Users\Daniel\Documents\GitHub\Proyecto3_ControlComputarizado\Proyecto_3.X\main.asm
            RX_DECENAS_S2   0x000046       data     static C:\Users\Daniel\Documents\GitHub\Proyecto3_ControlComputarizado\Proyecto_3.X\main.asm
           RX_UNIDADES_S2   0x000047       data     static C:\Users\Daniel\Documents\GitHub\Proyecto3_ControlComputarizado\Proyecto_3.X\main.asm
                     ROTF   0x000048       data     static C:\Users\Daniel\Documents\GitHub\Proyecto3_ControlComputarizado\Proyecto_3.X\main.asm
               DUTY_CYCLE   0x000049       data     static C:\Users\Daniel\Documents\GitHub\Proyecto3_ControlComputarizado\Proyecto_3.X\main.asm
                    CICLO   0x00004a       data     static C:\Users\Daniel\Documents\GitHub\Proyecto3_ControlComputarizado\Proyecto_3.X\main.asm
                   TEMP_W   0x00004b       data     static C:\Users\Daniel\Documents\GitHub\Proyecto3_ControlComputarizado\Proyecto_3.X\main.asm
              TEMP_STATUS   0x00004c       data     static C:\Users\Daniel\Documents\GitHub\Proyecto3_ControlComputarizado\Proyecto_3.X\main.asm
                 TEMP_FSR   0x00004d       data     static C:\Users\Daniel\Documents\GitHub\Proyecto3_ControlComputarizado\Proyecto_3.X\main.asm


